; Function Attrs: uwtable
define void @_ZThn16_N6Handle17mouseReleaseEventEP24QGraphicsSceneMouseEvent(ptr noundef %0, ptr nocapture noundef readnone %1) unnamed_addr #10 align 2 personality ptr @__gxx_personality_v0 {
  %3 = alloca %class.QCursor, align 8
  call void @llvm.lifetime.start.p0(i64 8, ptr nonnull %3)
  call void @_ZN7QCursorC1EN2Qt11CursorShapeE(ptr noundef nonnull align 8 dereferenceable(8) %3, i32 noundef 17)
  invoke void @_ZN13QGraphicsItem9setCursorERK7QCursor(ptr noundef nonnull align 8 dereferenceable(16) %0, ptr noundef nonnull align 8 dereferenceable(8) %3)
          to label %_ZN6Handle17mouseReleaseEventEP24QGraphicsSceneMouseEvent.exit unwind label %4

4:                                                ; preds = %2
  %5 = landingpad { ptr, i32 }
          cleanup
  call void @_ZN7QCursorD1Ev(ptr noundef nonnull align 8 dereferenceable(8) %3) #13
  resume { ptr, i32 } %5

_ZN6Handle17mouseReleaseEventEP24QGraphicsSceneMouseEvent.exit: ; preds = %2
  %6 = getelementptr inbounds i8, ptr %0, i64 -16
  call void @_ZN7QCursorD1Ev(ptr noundef nonnull align 8 dereferenceable(8) %3) #13
  call void @_ZN6Handle14handleReleasedEv(ptr noundef nonnull align 8 dereferenceable(64) %6)
  call void @llvm.lifetime.end.p0(i64 8, ptr nonnull %3)
  ret void
}